; Function Attrs: mustprogress nounwind uwtable
define dso_local void @_ZNK4llvm4Loop11getStartLocEv(ptr dead_on_unwind noalias writable sret(%"class.llvm::DebugLoc") align 8 %0, ptr noundef nonnull align 8 dereferenceable(152) %1) local_unnamed_addr #0 align 2 {
  %3 = alloca %"class.llvm::Loop::LocRange", align 8
  call void @_ZNK4llvm4Loop11getLocRangeEv(ptr dead_on_unwind nonnull writable sret(%"class.llvm::Loop::LocRange") align 8 %3, ptr noundef nonnull align 8 dereferenceable(152) %1)
  %4 = load ptr, ptr %3, align 8
  store ptr %4, ptr %0, align 8
  %.not.i.i.i.i = icmp eq ptr %4, null
  br i1 %.not.i.i.i.i, label %_ZN4llvm8DebugLocC2ERKS0_.exit, label %5

5:                                                ; preds = %2
  %6 = call noundef zeroext i1 @_ZN4llvm16MetadataTracking5trackEPvRNS_8MetadataENS_12PointerUnionIJPNS_15MetadataAsValueEPS2_PNS_14DebugValueUserEEEE(ptr noundef nonnull %0, ptr noundef nonnull align 4 dereferenceable(8) %4, i64 1) #19
  br label %_ZN4llvm8DebugLocC2ERKS0_.exit

_ZN4llvm8DebugLocC2ERKS0_.exit:                   ; preds = %2, %5
  %7 = getelementptr inbounds nuw i8, ptr %3, i64 8
  %8 = load ptr, ptr %7, align 8
  %.not.i.i.i.i.i = icmp eq ptr %8, null
  br i1 %.not.i.i.i.i.i, label %_ZN4llvm8DebugLocD2Ev.exit.i, label %9

9:                                                ; preds = %_ZN4llvm8DebugLocC2ERKS0_.exit
  call void @_ZN4llvm16MetadataTracking7untrackEPvRNS_8MetadataE(ptr noundef nonnull %7, ptr noundef nonnull align 4 dereferenceable(8) %8) #19
  br label %_ZN4llvm8DebugLocD2Ev.exit.i

_ZN4llvm8DebugLocD2Ev.exit.i:                     ; preds = %9, %_ZN4llvm8DebugLocC2ERKS0_.exit
  %10 = load ptr, ptr %3, align 8
  %.not.i.i.i.i1.i = icmp eq ptr %10, null
  br i1 %.not.i.i.i.i1.i, label %_ZN4llvm4Loop8LocRangeD2Ev.exit, label %11

11:                                               ; preds = %_ZN4llvm8DebugLocD2Ev.exit.i
  call void @_ZN4llvm16MetadataTracking7untrackEPvRNS_8MetadataE(ptr noundef nonnull %3, ptr noundef nonnull align 4 dereferenceable(8) %10) #19
  br label %_ZN4llvm4Loop8LocRangeD2Ev.exit

_ZN4llvm4Loop8LocRangeD2Ev.exit:                  ; preds = %_ZN4llvm8DebugLocD2Ev.exit.i, %11
  ret void
}